; Function Attrs: nounwind uwtable
define i32 @arkStep_SetNlsRhsFn(ptr noundef %0, ptr noundef %1) local_unnamed_addr #0 {
  %3 = alloca ptr, align 8
  call void @llvm.lifetime.start.p0(i64 8, ptr nonnull %3) #5
  %4 = call i32 @arkStep_AccessStepMem(ptr noundef %0, ptr noundef nonnull @__func__.arkStep_SetNlsRhsFn, ptr noundef nonnull %3) #5
  %.not = icmp eq i32 %4, 0
  br i1 %.not, label %5, label %11

5:                                                ; preds = %2
  %.not7 = icmp eq ptr %1, null
  %6 = load ptr, ptr %3, align 8, !tbaa !14
  br i1 %.not7, label %7, label %.sink.split

7:                                                ; preds = %5
  %8 = getelementptr inbounds nuw i8, ptr %6, i64 8
  %9 = load ptr, ptr %8, align 8, !tbaa !28
  br label %.sink.split

.sink.split:                                      ; preds = %5, %7
  %.sink = phi ptr [ %9, %7 ], [ %1, %5 ]
  %10 = getelementptr inbounds nuw i8, ptr %6, i64 144
  store ptr %.sink, ptr %10, align 8, !tbaa !29
  br label %11

11:                                               ; preds = %.sink.split, %2
  call void @llvm.lifetime.end.p0(i64 8, ptr nonnull %3) #5
  ret i32 %4
}